(lp0
(i__main__
Vehiculos
p1
(dp2
S'acelera'
p3
I00
sS'enmarcha'
p4
I00
sS'modelo'
p5
S'mx5'
p6
sS'marca'
p7
S'mazda'
p8
sS'frena'
p9
I00
sba(i__main__
Vehiculos
p10
(dp11
g3
I00
sg4
I00
sg5
S'34d'
p12
sg7
S'fiat'
p13
sg9
I00
sba(i__main__
Vehiculos
p14
(dp15
g3
I00
sg4
I00
sg5
S'megane'
p16
sg7
S'renault'
p17
sg9
I00
sba.